target datalayout = "e-m:e-p270:32:32-p271:32:32-p272:64:64-i64:64-i128:128-f80:128-n8:16:32:64-S128"
target triple = "x86_64-pc-linux-gnu"

%"class.tinyxml2::XMLPrinter" = type { %"class.tinyxml2::XMLVisitor", i8, %"class.tinyxml2::DynArray.7", i8, ptr, i32, i32, i8, i8, [64 x i8], [64 x i8], [6 x i8], %"class.tinyxml2::DynArray.8" }
%"class.tinyxml2::XMLVisitor" = type { ptr }
%"class.tinyxml2::DynArray.7" = type { ptr, [10 x ptr], i32, i32 }
%"class.tinyxml2::DynArray.8" = type <{ ptr, [20 x i8], i32, i32, [4 x i8] }>

; Function Attrs: mustprogress uwtable
define void @_ZN8tinyxml210XMLPrinter23SealElementIfJustOpenedEv(ptr noundef nonnull align 8 dereferenceable(312) %0) #2 align 2 {
  %2 = alloca ptr, align 8
  store ptr %0, ptr %2, align 8, !tbaa !194
  %3 = load ptr, ptr %2, align 8
  %4 = getelementptr inbounds nuw %"class.tinyxml2::XMLPrinter", ptr %3, i32 0, i32 1
  %5 = load i8, ptr %4, align 8, !tbaa !206, !range !35, !noundef !36
  %6 = trunc i8 %5 to i1
  br i1 %6, label %8, label %7

7:                                                ; preds = %1
  br label %13

8:                                                ; preds = %1
  %9 = getelementptr inbounds nuw %"class.tinyxml2::XMLPrinter", ptr %3, i32 0, i32 1
  store i8 0, ptr %9, align 8, !tbaa !206
  %10 = load ptr, ptr %3, align 8, !tbaa !91
  %11 = getelementptr inbounds ptr, ptr %10, i64 15
  %12 = load ptr, ptr %11, align 8
  call void %12(ptr noundef nonnull align 8 dereferenceable(312) %3, i8 noundef signext 62)
  br label %13

13:                                               ; preds = %8, %7
  ret void
}