; Function Attrs: mustprogress uwtable
define void @_ZN8tinyxml210XMLPrinter23SealElementIfJustOpenedEv(ptr noundef nonnull align 8 dereferenceable(312) %0) local_unnamed_addr #4 align 2 {
  %2 = getelementptr inbounds nuw i8, ptr %0, i64 8
  %3 = load i8, ptr %2, align 8, !tbaa !157, !range !94, !noundef !95
  %4 = trunc nuw i8 %3 to i1
  br i1 %4, label %5, label %9

5:                                                ; preds = %1
  store i8 0, ptr %2, align 8, !tbaa !157
  %6 = load ptr, ptr %0, align 8, !tbaa !63
  %7 = getelementptr inbounds nuw i8, ptr %6, i64 120
  %8 = load ptr, ptr %7, align 8
  tail call void %8(ptr noundef nonnull align 8 dereferenceable(312) %0, i8 noundef signext 62)
  br label %9

9:                                                ; preds = %1, %5
  ret void
}